target datalayout = "e-m:e-p270:32:32-p271:32:32-p272:64:64-i64:64-i128:128-f80:128-n8:16:32:64-S128"
target triple = "x86_64-pc-linux-gnu"

%struct.t_inputrec = type { i32, i32, i64, i32, i64, i32, i32, i32, i32, i32, i32, i32, i32, i32, i32, i32, double, double, i8, %"class.std::vector", float, float, float, i32, i32, i32, i32, float, float, i32, float, i32, i32, i8, i8, i32, float, i32, i32, i8, %struct.PressureCouplingOptions, %"class.std::vector.0", %"class.std::vector.0", i32, float, float, float, float, i32, i32, float, float, float, float, i8, i32, i32, float, float, i32, float, float, i32, %"class.std::unique_ptr", i8, %"class.std::unique_ptr.7", i8, %"class.std::unique_ptr.15", i32, float, i32, i8, i32, float, float, float, i32, float, float, i32, float, i32, i32, i32, i32, float, i32, i8, float, i64, i32, i32, float, [2 x i32], [2 x float], float, i8, %"class.std::unique_ptr.23", i8, %"class.std::unique_ptr.31", i8, %"class.std::unique_ptr.39", i32, ptr, i8, ptr, float, [3 x [3 x float]], i32, i32, i32, i32, float, float, float, float, %struct.t_grpopts, i8, i8, i8, i8, ptr, %"class.std::unique_ptr.47" }
%"class.std::vector" = type { %"struct.std::_Vector_base" }
%"struct.std::_Vector_base" = type { %"struct.std::_Vector_base<gmx::MtsLevel, std::allocator<gmx::MtsLevel>>::_Vector_impl" }
%"struct.std::_Vector_base<gmx::MtsLevel, std::allocator<gmx::MtsLevel>>::_Vector_impl" = type { %"struct.std::_Vector_base<gmx::MtsLevel, std::allocator<gmx::MtsLevel>>::_Vector_impl_data" }
%"struct.std::_Vector_base<gmx::MtsLevel, std::allocator<gmx::MtsLevel>>::_Vector_impl_data" = type { ptr, ptr, ptr }
%struct.PressureCouplingOptions = type { i32, i32, i32, float, [3 x [3 x float]], [3 x [3 x float]], i32 }
%"class.std::vector.0" = type { %"struct.std::_Vector_base.1" }
%"struct.std::_Vector_base.1" = type { %"struct.std::_Vector_base<gmx::BasicVector<float>, std::allocator<gmx::BasicVector<float>>>::_Vector_impl" }
%"struct.std::_Vector_base<gmx::BasicVector<float>, std::allocator<gmx::BasicVector<float>>>::_Vector_impl" = type { %"struct.std::_Vector_base<gmx::BasicVector<float>, std::allocator<gmx::BasicVector<float>>>::_Vector_impl_data" }
%"struct.std::_Vector_base<gmx::BasicVector<float>, std::allocator<gmx::BasicVector<float>>>::_Vector_impl_data" = type { ptr, ptr, ptr }
%"class.std::unique_ptr" = type { %"struct.std::__uniq_ptr_data" }
%"struct.std::__uniq_ptr_data" = type { %"class.std::__uniq_ptr_impl" }
%"class.std::__uniq_ptr_impl" = type { %"class.std::tuple" }
%"class.std::tuple" = type { %"struct.std::_Tuple_impl" }
%"struct.std::_Tuple_impl" = type { %"struct.std::_Head_base.6" }
%"struct.std::_Head_base.6" = type { ptr }
%"class.std::unique_ptr.7" = type { %"struct.std::__uniq_ptr_data.8" }
%"struct.std::__uniq_ptr_data.8" = type { %"class.std::__uniq_ptr_impl.9" }
%"class.std::__uniq_ptr_impl.9" = type { %"class.std::tuple.10" }
%"class.std::tuple.10" = type { %"struct.std::_Tuple_impl.11" }
%"struct.std::_Tuple_impl.11" = type { %"struct.std::_Head_base.14" }
%"struct.std::_Head_base.14" = type { ptr }
%"class.std::unique_ptr.15" = type { %"struct.std::__uniq_ptr_data.16" }
%"struct.std::__uniq_ptr_data.16" = type { %"class.std::__uniq_ptr_impl.17" }
%"class.std::__uniq_ptr_impl.17" = type { %"class.std::tuple.18" }
%"class.std::tuple.18" = type { %"struct.std::_Tuple_impl.19" }
%"struct.std::_Tuple_impl.19" = type { %"struct.std::_Head_base.22" }
%"struct.std::_Head_base.22" = type { ptr }
%"class.std::unique_ptr.23" = type { %"struct.std::__uniq_ptr_data.24" }
%"struct.std::__uniq_ptr_data.24" = type { %"class.std::__uniq_ptr_impl.25" }
%"class.std::__uniq_ptr_impl.25" = type { %"class.std::tuple.26" }
%"class.std::tuple.26" = type { %"struct.std::_Tuple_impl.27" }
%"struct.std::_Tuple_impl.27" = type { %"struct.std::_Head_base.30" }
%"struct.std::_Head_base.30" = type { ptr }
%"class.std::unique_ptr.31" = type { %"struct.std::__uniq_ptr_data.32" }
%"struct.std::__uniq_ptr_data.32" = type { %"class.std::__uniq_ptr_impl.33" }
%"class.std::__uniq_ptr_impl.33" = type { %"class.std::tuple.34" }
%"class.std::tuple.34" = type { %"struct.std::_Tuple_impl.35" }
%"struct.std::_Tuple_impl.35" = type { %"struct.std::_Head_base.38" }
%"struct.std::_Head_base.38" = type { ptr }
%"class.std::unique_ptr.39" = type { %"struct.std::__uniq_ptr_data.40" }
%"struct.std::__uniq_ptr_data.40" = type { %"class.std::__uniq_ptr_impl.41" }
%"class.std::__uniq_ptr_impl.41" = type { %"class.std::tuple.42" }
%"class.std::tuple.42" = type { %"struct.std::_Tuple_impl.43" }
%"struct.std::_Tuple_impl.43" = type { %"struct.std::_Head_base.46" }
%"struct.std::_Head_base.46" = type { ptr }
%struct.t_grpopts = type <{ i32, i32, i32, i32, i32, [4 x i8], ptr, ptr, ptr, ptr, ptr, ptr, ptr, ptr, ptr, ptr, i32, [4 x i8] }>
%"class.std::unique_ptr.47" = type { %"struct.std::__uniq_ptr_data.48" }
%"struct.std::__uniq_ptr_data.48" = type { %"class.std::__uniq_ptr_impl.49" }
%"class.std::__uniq_ptr_impl.49" = type { %"class.std::tuple.50" }
%"class.std::tuple.50" = type { %"struct.std::_Tuple_impl.51" }
%"struct.std::_Tuple_impl.51" = type { %"struct.std::_Head_base.54" }
%"struct.std::_Head_base.54" = type { ptr }

@.str.47 = private unnamed_addr constant [13 x i8] c"Berendsen84a\00", align 1
@.str.48 = private unnamed_addr constant [11 x i8] c"Bussi2007a\00", align 1
@.str.49 = private unnamed_addr constant [13 x i8] c"Bernetti2020\00", align 1
@.str.50 = private unnamed_addr constant [9 x i8] c"Goga2012\00", align 1

; Function Attrs: mustprogress uwtable
define void @_Z28pleaseCiteCouplingAlgorithmsP8_IO_FILERK10t_inputrec(ptr noundef %0, ptr noundef nonnull align 8 dereferenceable(880) %1) #0 {
  %3 = alloca ptr, align 8
  %4 = alloca ptr, align 8
  store ptr %0, ptr %3, align 8, !tbaa !133
  store ptr %1, ptr %4, align 8, !tbaa !8
  %5 = load ptr, ptr %4, align 8, !tbaa !8
  %6 = getelementptr inbounds nuw %struct.t_inputrec, ptr %5, i32 0, i32 1
  %7 = load i32, ptr %6, align 4, !tbaa !113
  %8 = icmp eq i32 %7, 0
  br i1 %8, label %34, label %9

9:                                                ; preds = %2
  %10 = load ptr, ptr %4, align 8, !tbaa !8
  %11 = getelementptr inbounds nuw %struct.t_inputrec, ptr %10, i32 0, i32 1
  %12 = load i32, ptr %11, align 4, !tbaa !113
  %13 = icmp eq i32 %12, 10
  br i1 %13, label %34, label %14

14:                                               ; preds = %9
  %15 = load ptr, ptr %4, align 8, !tbaa !8
  %16 = getelementptr inbounds nuw %struct.t_inputrec, ptr %15, i32 0, i32 1
  %17 = load i32, ptr %16, align 4, !tbaa !113
  %18 = icmp eq i32 %17, 11
  br i1 %18, label %34, label %19

19:                                               ; preds = %14
  %20 = load ptr, ptr %4, align 8, !tbaa !8
  %21 = getelementptr inbounds nuw %struct.t_inputrec, ptr %20, i32 0, i32 1
  %22 = load i32, ptr %21, align 4, !tbaa !113
  %23 = icmp eq i32 %22, 12
  br i1 %23, label %34, label %24

24:                                               ; preds = %19
  %25 = load ptr, ptr %4, align 8, !tbaa !8
  %26 = getelementptr inbounds nuw %struct.t_inputrec, ptr %25, i32 0, i32 1
  %27 = load i32, ptr %26, align 4, !tbaa !113
  %28 = icmp eq i32 %27, 9
  br i1 %28, label %34, label %29

29:                                               ; preds = %24
  %30 = load ptr, ptr %4, align 8, !tbaa !8
  %31 = getelementptr inbounds nuw %struct.t_inputrec, ptr %30, i32 0, i32 1
  %32 = load i32, ptr %31, align 4, !tbaa !113
  %33 = icmp eq i32 %32, 3
  br i1 %33, label %34, label %64

34:                                               ; preds = %29, %24, %19, %14, %9, %2
  %35 = load ptr, ptr %4, align 8, !tbaa !8
  %36 = getelementptr inbounds nuw %struct.t_inputrec, ptr %35, i32 0, i32 37
  %37 = load i32, ptr %36, align 8, !tbaa !21
  %38 = icmp eq i32 %37, 1
  br i1 %38, label %39, label %41

39:                                               ; preds = %34
  %40 = load ptr, ptr %3, align 8, !tbaa !133
  call void @_Z11please_citeP8_IO_FILEPKc(ptr noundef %40, ptr noundef @.str.47)
  br label %41

41:                                               ; preds = %39, %34
  %42 = load ptr, ptr %4, align 8, !tbaa !8
  %43 = getelementptr inbounds nuw %struct.t_inputrec, ptr %42, i32 0, i32 37
  %44 = load i32, ptr %43, align 8, !tbaa !21
  %45 = icmp eq i32 %44, 6
  br i1 %45, label %46, label %48

46:                                               ; preds = %41
  %47 = load ptr, ptr %3, align 8, !tbaa !133
  call void @_Z11please_citeP8_IO_FILEPKc(ptr noundef %47, ptr noundef @.str.48)
  br label %48

48:                                               ; preds = %46, %41
  %49 = load ptr, ptr %4, align 8, !tbaa !8
  %50 = getelementptr inbounds nuw %struct.t_inputrec, ptr %49, i32 0, i32 40
  %51 = getelementptr inbounds nuw %struct.PressureCouplingOptions, ptr %50, i32 0, i32 0
  %52 = load i32, ptr %51, align 4, !tbaa !697
  %53 = icmp eq i32 %52, 5
  br i1 %53, label %54, label %56

54:                                               ; preds = %48
  %55 = load ptr, ptr %3, align 8, !tbaa !133
  call void @_Z11please_citeP8_IO_FILEPKc(ptr noundef %55, ptr noundef @.str.49)
  br label %56

56:                                               ; preds = %54, %48
  %57 = load ptr, ptr %4, align 8, !tbaa !8
  %58 = getelementptr inbounds nuw %struct.t_inputrec, ptr %57, i32 0, i32 1
  %59 = load i32, ptr %58, align 4, !tbaa !113
  %60 = icmp eq i32 %59, 9
  br i1 %60, label %61, label %63

61:                                               ; preds = %56
  %62 = load ptr, ptr %3, align 8, !tbaa !133
  call void @_Z11please_citeP8_IO_FILEPKc(ptr noundef %62, ptr noundef @.str.50)
  br label %63

63:                                               ; preds = %61, %56
  br label %64

64:                                               ; preds = %63, %29
  ret void
}