; Function Attrs: mustprogress uwtable
define void @_Z28pleaseCiteCouplingAlgorithmsP8_IO_FILERK10t_inputrec(ptr noundef %0, ptr noundef nonnull readonly align 8 captures(none) dereferenceable(880) %1) local_unnamed_addr #0 {
  %3 = getelementptr inbounds nuw i8, ptr %1, i64 4
  %4 = load i32, ptr %3, align 4, !tbaa !102
  switch i32 %4, label %23 [
    i32 0, label %5
    i32 10, label %5
    i32 11, label %5
    i32 12, label %5
    i32 9, label %5
    i32 3, label %5
  ]

5:                                                ; preds = %2, %2, %2, %2, %2, %2
  %6 = getelementptr inbounds nuw i8, ptr %1, i64 192
  %7 = load i32, ptr %6, align 8, !tbaa !4
  %8 = icmp eq i32 %7, 1
  br i1 %8, label %9, label %10

9:                                                ; preds = %5
  tail call void @_Z11please_citeP8_IO_FILEPKc(ptr noundef %0, ptr noundef nonnull @.str.47)
  %.pr = load i32, ptr %6, align 8, !tbaa !4
  br label %10

10:                                               ; preds = %9, %5
  %11 = phi i32 [ %.pr, %9 ], [ %7, %5 ]
  %12 = icmp eq i32 %11, 6
  br i1 %12, label %13, label %14

13:                                               ; preds = %10
  tail call void @_Z11please_citeP8_IO_FILEPKc(ptr noundef %0, ptr noundef nonnull @.str.48)
  br label %14

14:                                               ; preds = %13, %10
  %15 = getelementptr inbounds nuw i8, ptr %1, i64 204
  %16 = load i32, ptr %15, align 4, !tbaa !394
  %17 = icmp eq i32 %16, 5
  br i1 %17, label %18, label %19

18:                                               ; preds = %14
  tail call void @_Z11please_citeP8_IO_FILEPKc(ptr noundef %0, ptr noundef nonnull @.str.49)
  br label %19

19:                                               ; preds = %18, %14
  %20 = load i32, ptr %3, align 4, !tbaa !102
  %21 = icmp eq i32 %20, 9
  br i1 %21, label %22, label %23

22:                                               ; preds = %19
  tail call void @_Z11please_citeP8_IO_FILEPKc(ptr noundef %0, ptr noundef nonnull @.str.50)
  br label %23

23:                                               ; preds = %2, %19, %22
  ret void
}